; Function Attrs: mustprogress uwtable
define hidden void @_ZNK4cvc54main15CommandExecutor19printStatisticsSafeEi(ptr nocapture noundef nonnull readonly align 8 dereferenceable(41) %this, i32 noundef %fd) local_unnamed_addr #4 align 2 personality ptr @__gxx_personality_v0 {
entry:
  %ref.tmp = alloca %"struct.cvc5::OptionInfo", align 8
  %ref.tmp2 = alloca %"class.std::__cxx11::basic_string", align 8
  %ref.tmp3 = alloca %"class.std::allocator", align 1
  %d_solver = getelementptr inbounds i8, ptr %this, i64 8
  %0 = load ptr, ptr %d_solver, align 8
  %1 = load ptr, ptr %0, align 8
  call void @_ZNSaIcEC1Ev(ptr noundef nonnull align 1 dereferenceable(1) %ref.tmp3) #15
  %call.i3 = invoke noundef ptr @_ZNSt7__cxx1112basic_stringIcSt11char_traitsIcESaIcEE13_M_local_dataEv(ptr noundef nonnull align 8 dereferenceable(32) %ref.tmp2)
          to label %call.i.noexc unwind label %lpad

call.i.noexc:                                     ; preds = %entry
  invoke void @_ZNSt7__cxx1112basic_stringIcSt11char_traitsIcESaIcEE12_Alloc_hiderC1EPcRKS3_(ptr noundef nonnull align 8 dereferenceable(8) %ref.tmp2, ptr noundef %call.i3, ptr noundef nonnull align 1 dereferenceable(1) %ref.tmp3)
          to label %.noexc unwind label %lpad

.noexc:                                           ; preds = %call.i.noexc
  invoke void @_ZNSt7__cxx1112basic_stringIcSt11char_traitsIcESaIcEE12_M_constructIPKcEEvT_S8_St20forward_iterator_tag(ptr noundef nonnull align 8 dereferenceable(32) %ref.tmp2, ptr noundef nonnull @.str.1, ptr noundef nonnull getelementptr inbounds ([6 x i8], ptr @.str.1, i64 0, i64 5))
          to label %invoke.cont unwind label %lpad.i

lpad.i:                                           ; preds = %.noexc
  %2 = landingpad { ptr, i32 }
          cleanup
  call void @_ZNSaIcED2Ev(ptr noundef nonnull align 1 dereferenceable(1) %ref.tmp2) #15
  br label %ehcleanup9

invoke.cont:                                      ; preds = %.noexc
  invoke void @_ZNK4cvc56Solver13getOptionInfoERKNSt7__cxx1112basic_stringIcSt11char_traitsIcESaIcEEE(ptr nonnull sret(%"struct.cvc5::OptionInfo") align 8 %ref.tmp, ptr noundef nonnull align 8 dereferenceable(40) %1, ptr noundef nonnull align 8 dereferenceable(32) %ref.tmp2)
          to label %invoke.cont5 unwind label %lpad4

invoke.cont5:                                     ; preds = %invoke.cont
  %call8 = invoke noundef zeroext i1 @_ZNK4cvc510OptionInfo9boolValueEv(ptr noundef nonnull align 8 dereferenceable(160) %ref.tmp)
          to label %invoke.cont7 unwind label %lpad6

invoke.cont7:                                     ; preds = %invoke.cont5
  call void @_ZN4cvc510OptionInfoD2Ev(ptr noundef nonnull align 8 dereferenceable(160) %ref.tmp) #15
  call void @_ZNSt7__cxx1112basic_stringIcSt11char_traitsIcESaIcEED1Ev(ptr noundef nonnull align 8 dereferenceable(32) %ref.tmp2) #15
  call void @_ZNSaIcED1Ev(ptr noundef nonnull align 1 dereferenceable(1) %ref.tmp3) #15
  br i1 %call8, label %if.then, label %if.end

if.then:                                          ; preds = %invoke.cont7
  %3 = load ptr, ptr %d_solver, align 8
  %4 = load ptr, ptr %3, align 8
  call void @_ZNK4cvc56Solver19printStatisticsSafeEi(ptr noundef nonnull align 8 dereferenceable(40) %4, i32 noundef %fd)
  br label %if.end

lpad:                                             ; preds = %call.i.noexc, %entry
  %5 = landingpad { ptr, i32 }
          cleanup
  br label %ehcleanup9

lpad4:                                            ; preds = %invoke.cont
  %6 = landingpad { ptr, i32 }
          cleanup
  br label %ehcleanup

lpad6:                                            ; preds = %invoke.cont5
  %7 = landingpad { ptr, i32 }
          cleanup
  call void @_ZN4cvc510OptionInfoD2Ev(ptr noundef nonnull align 8 dereferenceable(160) %ref.tmp) #15
  br label %ehcleanup

ehcleanup:                                        ; preds = %lpad6, %lpad4
  %.pn = phi { ptr, i32 } [ %7, %lpad6 ], [ %6, %lpad4 ]
  call void @_ZNSt7__cxx1112basic_stringIcSt11char_traitsIcESaIcEED1Ev(ptr noundef nonnull align 8 dereferenceable(32) %ref.tmp2) #15
  br label %ehcleanup9

ehcleanup9:                                       ; preds = %lpad, %lpad.i, %ehcleanup
  %.pn.pn = phi { ptr, i32 } [ %.pn, %ehcleanup ], [ %5, %lpad ], [ %2, %lpad.i ]
  call void @_ZNSaIcED1Ev(ptr noundef nonnull align 1 dereferenceable(1) %ref.tmp3) #15
  resume { ptr, i32 } %.pn.pn

if.end:                                           ; preds = %if.then, %invoke.cont7
  ret void
}